; Function Attrs: inlinehint mustprogress uwtable
define internal void @"_ZN4pbrt4$_198__invokeERNS_16StatsAccumulatorE"(ptr noundef nonnull align 8 dereferenceable(8) %0) #11 align 2 {
  %2 = tail call align 8 ptr @llvm.threadlocal.address.p0(ptr align 8 @_ZN4pbrtL14kdNodesVisitedE)
  %3 = load i64, ptr %2, align 8, !tbaa !49
  %4 = tail call align 8 ptr @llvm.threadlocal.address.p0(ptr align 8 @_ZN4pbrtL17kdNodesVisitedSumE)
  %5 = load i64, ptr %4, align 8, !tbaa !49
  %6 = add nsw i64 %5, %3
  tail call void @_ZN4pbrt16StatsAccumulator13ReportCounterEPKcl(ptr noundef nonnull align 8 dereferenceable(8) %0, ptr noundef nonnull @.str.80, i64 noundef %6)
  store i64 0, ptr %4, align 8, !tbaa !49
  store i64 0, ptr %2, align 8, !tbaa !49
  ret void
}